; Function Attrs: nofree norecurse nosync nounwind memory(readwrite, inaccessiblemem: none) uwtable
define hidden void @AnyByteIsomorphicCopy(ptr noundef %0, ptr noundef %1, i32 noundef %2, i32 noundef %3, ptr nocapture noundef readonly %4, ptr nocapture noundef readonly %5, ptr nocapture noundef readnone %6, ptr nocapture noundef readnone %7) local_unnamed_addr #2 {
  %9 = getelementptr inbounds i8, ptr %4, i64 32
  %10 = load i32, ptr %9, align 8
  %11 = getelementptr inbounds i8, ptr %5, i64 32
  %12 = load i32, ptr %11, align 8
  %13 = zext i32 %2 to i64
  %14 = sext i32 %10 to i64
  %15 = sext i32 %12 to i64
  br label %16

16:                                               ; preds = %16, %8
  %.012 = phi ptr [ %1, %8 ], [ %22, %16 ]
  %.011 = phi ptr [ %0, %8 ], [ %19, %16 ]
  %.0 = phi i32 [ %3, %8 ], [ %23, %16 ]
  tail call void @llvm.memcpy.p0.p0.i64(ptr align 1 %.012, ptr align 1 %.011, i64 %13, i1 false)
  %17 = ptrtoint ptr %.011 to i64
  %18 = add nsw i64 %17, %14
  %19 = inttoptr i64 %18 to ptr
  %20 = ptrtoint ptr %.012 to i64
  %21 = add nsw i64 %20, %15
  %22 = inttoptr i64 %21 to ptr
  %23 = add i32 %.0, -1
  %.not = icmp eq i32 %23, 0
  br i1 %.not, label %24, label %16, !llvm.loop !26

24:                                               ; preds = %16
  ret void
}